target datalayout = "e-m:e-p270:32:32-p271:32:32-p272:64:64-i64:64-i128:128-f80:128-n8:16:32:64-S128"
target triple = "x86_64-pc-linux-gnu"

%"class.Json::Value" = type { %"union.Json::Value::ValueHolder", %struct.anon, %"class.Json::Value::Comments", i64, i64 }
%"union.Json::Value::ValueHolder" = type { i64 }
%struct.anon = type { i16, [2 x i8] }
%"class.Json::Value::Comments" = type { %"class.std::unique_ptr" }
%"class.std::unique_ptr" = type { %"struct.std::__uniq_ptr_data" }
%"struct.std::__uniq_ptr_data" = type { %"class.std::__uniq_ptr_impl" }
%"class.std::__uniq_ptr_impl" = type { %"class.std::tuple" }
%"class.std::tuple" = type { %"struct.std::_Tuple_impl" }
%"struct.std::_Tuple_impl" = type { %"struct.std::_Head_base.1" }
%"struct.std::_Head_base.1" = type { ptr }
%"class.dap::boolean" = type { i8 }
%"class.dap::integer" = type { i64 }
%"class.dap::number" = type { double }
%"class.dap::any" = type { ptr, ptr, ptr, [32 x i8] }
%"struct.dap::json::JsonCppSerializer" = type <{ %"class.dap::Serializer", ptr, i8, i8, [6 x i8] }>
%"class.dap::Serializer" = type { ptr }

; Function Attrs: mustprogress nounwind uwtable
define linkonce_odr dso_local noundef ptr @_ZN3dap10Serializer11get_any_valERKNS_3anyE(ptr noundef nonnull align 8 dereferenceable(56) %0) #1 comdat align 2 {
  %2 = alloca ptr, align 8
  store ptr %0, ptr %2, align 8
  %3 = load ptr, ptr %2, align 8
  %4 = getelementptr inbounds %"class.dap::any", ptr %3, i32 0, i32 0
  %5 = load ptr, ptr %4, align 8
  ret ptr %5
}

; Function Attrs: mustprogress nounwind uwtable
define linkonce_odr dso_local noundef ptr @_ZN3dap10Serializer12get_any_typeERKNS_3anyE(ptr noundef nonnull align 8 dereferenceable(56) %0) #1 comdat align 2 {
  %2 = alloca ptr, align 8
  store ptr %0, ptr %2, align 8
  %3 = load ptr, ptr %2, align 8
  %4 = getelementptr inbounds %"class.dap::any", ptr %3, i32 0, i32 1
  %5 = load ptr, ptr %4, align 8
  ret ptr %5
}

; Function Attrs: mustprogress nounwind uwtable
define linkonce_odr dso_local noundef zeroext i1 @_ZNK3dap3any2isIDnEEbv(ptr noundef nonnull align 8 dereferenceable(56) %0) #1 comdat align 2 {
  %2 = alloca ptr, align 8
  store ptr %0, ptr %2, align 8
  %3 = load ptr, ptr %2, align 8
  %4 = getelementptr inbounds %"class.dap::any", ptr %3, i32 0, i32 0
  %5 = load ptr, ptr %4, align 8
  %6 = icmp eq ptr %5, null
  ret i1 %6
}

; Function Attrs: mustprogress nounwind uwtable
define linkonce_odr dso_local noundef nonnull align 8 dereferenceable(56) ptr @_ZNK3dap3any3getISt13unordered_mapINSt7__cxx1112basic_stringIcSt11char_traitsIcESaIcEEES0_St4hashIS8_ESt8equal_toIS8_ESaISt4pairIKS8_S0_EEEEERT_v(ptr noundef nonnull align 8 dereferenceable(56) %0) #1 comdat align 2 {
  %2 = alloca ptr, align 8
  store ptr %0, ptr %2, align 8
  %3 = load ptr, ptr %2, align 8
  %4 = getelementptr inbounds %"class.dap::any", ptr %3, i32 0, i32 0
  %5 = load ptr, ptr %4, align 8
  ret ptr %5
}

; Function Attrs: mustprogress uwtable
define linkonce_odr dso_local noundef zeroext i1 @_ZNK3dap3any2isISt13unordered_mapINSt7__cxx1112basic_stringIcSt11char_traitsIcESaIcEEES0_St4hashIS8_ESt8equal_toIS8_ESaISt4pairIKS8_S0_EEEEEbv(ptr noundef nonnull align 8 dereferenceable(56) %0) #0 comdat align 2 {
  %2 = alloca ptr, align 8
  store ptr %0, ptr %2, align 8
  %3 = load ptr, ptr %2, align 8
  %4 = getelementptr inbounds %"class.dap::any", ptr %3, i32 0, i32 1
  %5 = load ptr, ptr %4, align 8
  %6 = call noundef ptr @_ZN3dap6TypeOfISt13unordered_mapINSt7__cxx1112basic_stringIcSt11char_traitsIcESaIcEEENS_3anyESt4hashIS7_ESt8equal_toIS7_ESaISt4pairIKS7_S8_EEEE4typeEv()
  %7 = icmp eq ptr %5, %6
  ret i1 %7
}

; Function Attrs: mustprogress nounwind uwtable
define linkonce_odr dso_local noundef nonnull align 8 dereferenceable(32) ptr @_ZNK3dap3any3getINSt7__cxx1112basic_stringIcSt11char_traitsIcESaIcEEEEERT_v(ptr noundef nonnull align 8 dereferenceable(56) %0) #1 comdat align 2 {
  %2 = alloca ptr, align 8
  store ptr %0, ptr %2, align 8
  %3 = load ptr, ptr %2, align 8
  %4 = getelementptr inbounds %"class.dap::any", ptr %3, i32 0, i32 0
  %5 = load ptr, ptr %4, align 8
  ret ptr %5
}

; Function Attrs: mustprogress uwtable
define linkonce_odr dso_local noundef zeroext i1 @_ZNK3dap3any2isINSt7__cxx1112basic_stringIcSt11char_traitsIcESaIcEEEEEbv(ptr noundef nonnull align 8 dereferenceable(56) %0) #0 comdat align 2 {
  %2 = alloca ptr, align 8
  store ptr %0, ptr %2, align 8
  %3 = load ptr, ptr %2, align 8
  %4 = getelementptr inbounds %"class.dap::any", ptr %3, i32 0, i32 1
  %5 = load ptr, ptr %4, align 8
  %6 = call noundef ptr @_ZN3dap6TypeOfINSt7__cxx1112basic_stringIcSt11char_traitsIcESaIcEEEE4typeEv()
  %7 = icmp eq ptr %5, %6
  ret i1 %7
}

; Function Attrs: mustprogress nounwind uwtable
define linkonce_odr dso_local noundef double @_ZNK3dap6numbercvdEv(ptr noundef nonnull align 8 dereferenceable(8) %0) #1 comdat align 2 {
  %2 = alloca ptr, align 8
  store ptr %0, ptr %2, align 8
  %3 = load ptr, ptr %2, align 8
  %4 = getelementptr inbounds %"class.dap::number", ptr %3, i32 0, i32 0
  %5 = load double, ptr %4, align 8
  ret double %5
}

; Function Attrs: mustprogress nounwind uwtable
define linkonce_odr dso_local noundef nonnull align 8 dereferenceable(8) ptr @_ZNK3dap3any3getINS_6numberEEERT_v(ptr noundef nonnull align 8 dereferenceable(56) %0) #1 comdat align 2 {
  %2 = alloca ptr, align 8
  store ptr %0, ptr %2, align 8
  %3 = load ptr, ptr %2, align 8
  %4 = getelementptr inbounds %"class.dap::any", ptr %3, i32 0, i32 0
  %5 = load ptr, ptr %4, align 8
  ret ptr %5
}

; Function Attrs: mustprogress uwtable
define linkonce_odr dso_local noundef zeroext i1 @_ZNK3dap3any2isINS_6numberEEEbv(ptr noundef nonnull align 8 dereferenceable(56) %0) #0 comdat align 2 {
  %2 = alloca ptr, align 8
  store ptr %0, ptr %2, align 8
  %3 = load ptr, ptr %2, align 8
  %4 = getelementptr inbounds %"class.dap::any", ptr %3, i32 0, i32 1
  %5 = load ptr, ptr %4, align 8
  %6 = call noundef ptr @_ZN3dap6TypeOfINS_6numberEE4typeEv()
  %7 = icmp eq ptr %5, %6
  ret i1 %7
}

; Function Attrs: mustprogress nounwind uwtable
define linkonce_odr dso_local noundef i64 @_ZNK3dap7integercvlEv(ptr noundef nonnull align 8 dereferenceable(8) %0) #1 comdat align 2 {
  %2 = alloca ptr, align 8
  store ptr %0, ptr %2, align 8
  %3 = load ptr, ptr %2, align 8
  %4 = getelementptr inbounds %"class.dap::integer", ptr %3, i32 0, i32 0
  %5 = load i64, ptr %4, align 8
  ret i64 %5
}

; Function Attrs: mustprogress nounwind uwtable
define linkonce_odr dso_local noundef nonnull align 8 dereferenceable(8) ptr @_ZNK3dap3any3getINS_7integerEEERT_v(ptr noundef nonnull align 8 dereferenceable(56) %0) #1 comdat align 2 {
  %2 = alloca ptr, align 8
  store ptr %0, ptr %2, align 8
  %3 = load ptr, ptr %2, align 8
  %4 = getelementptr inbounds %"class.dap::any", ptr %3, i32 0, i32 0
  %5 = load ptr, ptr %4, align 8
  ret ptr %5
}

; Function Attrs: mustprogress uwtable
define linkonce_odr dso_local noundef zeroext i1 @_ZNK3dap3any2isINS_7integerEEEbv(ptr noundef nonnull align 8 dereferenceable(56) %0) #0 comdat align 2 {
  %2 = alloca ptr, align 8
  store ptr %0, ptr %2, align 8
  %3 = load ptr, ptr %2, align 8
  %4 = getelementptr inbounds %"class.dap::any", ptr %3, i32 0, i32 1
  %5 = load ptr, ptr %4, align 8
  %6 = call noundef ptr @_ZN3dap6TypeOfINS_7integerEE4typeEv()
  %7 = icmp eq ptr %5, %6
  ret i1 %7
}

; Function Attrs: mustprogress nounwind uwtable
define linkonce_odr dso_local noundef zeroext i1 @_ZNK3dap7booleancvbEv(ptr noundef nonnull align 1 dereferenceable(1) %0) #1 comdat align 2 {
  %2 = alloca ptr, align 8
  store ptr %0, ptr %2, align 8
  %3 = load ptr, ptr %2, align 8
  %4 = getelementptr inbounds %"class.dap::boolean", ptr %3, i32 0, i32 0
  %5 = load i8, ptr %4, align 1
  %6 = trunc i8 %5 to i1
  ret i1 %6
}

; Function Attrs: mustprogress nounwind uwtable
define linkonce_odr dso_local noundef nonnull align 1 dereferenceable(1) ptr @_ZNK3dap3any3getINS_7booleanEEERT_v(ptr noundef nonnull align 8 dereferenceable(56) %0) #1 comdat align 2 {
  %2 = alloca ptr, align 8
  store ptr %0, ptr %2, align 8
  %3 = load ptr, ptr %2, align 8
  %4 = getelementptr inbounds %"class.dap::any", ptr %3, i32 0, i32 0
  %5 = load ptr, ptr %4, align 8
  ret ptr %5
}

; Function Attrs: mustprogress uwtable
define linkonce_odr dso_local noundef zeroext i1 @_ZNK3dap3any2isINS_7booleanEEEbv(ptr noundef nonnull align 8 dereferenceable(56) %0) #0 comdat align 2 {
  %2 = alloca ptr, align 8
  store ptr %0, ptr %2, align 8
  %3 = load ptr, ptr %2, align 8
  %4 = getelementptr inbounds %"class.dap::any", ptr %3, i32 0, i32 1
  %5 = load ptr, ptr %4, align 8
  %6 = call noundef ptr @_ZN3dap6TypeOfINS_7booleanEE4typeEv()
  %7 = icmp eq ptr %5, %6
  ret i1 %7
}

; Function Attrs: mustprogress uwtable
define dso_local noundef zeroext i1 @_ZN3dap4json17JsonCppSerializer9serializeERKNS_3anyE(ptr noundef nonnull align 8 dereferenceable(18) %0, ptr noundef nonnull align 8 dereferenceable(56) %1) unnamed_addr #0 align 2 {
  %3 = alloca i1, align 1
  %4 = alloca ptr, align 8
  %5 = alloca ptr, align 8
  %6 = alloca %"class.Json::Value", align 8
  %7 = alloca %"class.Json::Value", align 8
  %8 = alloca %"class.Json::Value", align 8
  %9 = alloca %"class.Json::Value", align 8
  %10 = alloca ptr, align 8
  %11 = alloca ptr, align 8
  store ptr %0, ptr %4, align 8
  store ptr %1, ptr %5, align 8
  %12 = load ptr, ptr %4, align 8
  %13 = load ptr, ptr %5, align 8
  %14 = call noundef zeroext i1 @_ZNK3dap3any2isINS_7booleanEEEbv(ptr noundef nonnull align 8 dereferenceable(56) %13)
  br i1 %14, label %15, label %22

15:                                               ; preds = %2
  %16 = load ptr, ptr %5, align 8
  %17 = call noundef nonnull align 1 dereferenceable(1) ptr @_ZNK3dap3any3getINS_7booleanEEERT_v(ptr noundef nonnull align 8 dereferenceable(56) %16)
  %18 = call noundef zeroext i1 @_ZNK3dap7booleancvbEv(ptr noundef nonnull align 1 dereferenceable(1) %17)
  call void @_ZN4Json5ValueC1Eb(ptr noundef nonnull align 8 dereferenceable(40) %6, i1 noundef zeroext %18)
  %19 = getelementptr inbounds %"struct.dap::json::JsonCppSerializer", ptr %12, i32 0, i32 1
  %20 = load ptr, ptr %19, align 8
  %21 = call noundef nonnull align 8 dereferenceable(40) ptr @_ZN4Json5ValueaSEOS0_(ptr noundef nonnull align 8 dereferenceable(40) %20, ptr noundef nonnull align 8 dereferenceable(40) %6) #13
  call void @_ZN4Json5ValueD1Ev(ptr noundef nonnull align 8 dereferenceable(40) %6) #13
  br label %88

22:                                               ; preds = %2
  %23 = load ptr, ptr %5, align 8
  %24 = call noundef zeroext i1 @_ZNK3dap3any2isINS_7integerEEEbv(ptr noundef nonnull align 8 dereferenceable(56) %23)
  br i1 %24, label %25, label %32

25:                                               ; preds = %22
  %26 = load ptr, ptr %5, align 8
  %27 = call noundef nonnull align 8 dereferenceable(8) ptr @_ZNK3dap3any3getINS_7integerEEERT_v(ptr noundef nonnull align 8 dereferenceable(56) %26)
  %28 = call noundef i64 @_ZNK3dap7integercvlEv(ptr noundef nonnull align 8 dereferenceable(8) %27)
  call void @_ZN4Json5ValueC1El(ptr noundef nonnull align 8 dereferenceable(40) %7, i64 noundef %28)
  %29 = getelementptr inbounds %"struct.dap::json::JsonCppSerializer", ptr %12, i32 0, i32 1
  %30 = load ptr, ptr %29, align 8
  %31 = call noundef nonnull align 8 dereferenceable(40) ptr @_ZN4Json5ValueaSEOS0_(ptr noundef nonnull align 8 dereferenceable(40) %30, ptr noundef nonnull align 8 dereferenceable(40) %7) #13
  call void @_ZN4Json5ValueD1Ev(ptr noundef nonnull align 8 dereferenceable(40) %7) #13
  br label %87

32:                                               ; preds = %22
  %33 = load ptr, ptr %5, align 8
  %34 = call noundef zeroext i1 @_ZNK3dap3any2isINS_6numberEEEbv(ptr noundef nonnull align 8 dereferenceable(56) %33)
  br i1 %34, label %35, label %42

35:                                               ; preds = %32
  %36 = load ptr, ptr %5, align 8
  %37 = call noundef nonnull align 8 dereferenceable(8) ptr @_ZNK3dap3any3getINS_6numberEEERT_v(ptr noundef nonnull align 8 dereferenceable(56) %36)
  %38 = call noundef double @_ZNK3dap6numbercvdEv(ptr noundef nonnull align 8 dereferenceable(8) %37)
  call void @_ZN4Json5ValueC1Ed(ptr noundef nonnull align 8 dereferenceable(40) %8, double noundef %38)
  %39 = getelementptr inbounds %"struct.dap::json::JsonCppSerializer", ptr %12, i32 0, i32 1
  %40 = load ptr, ptr %39, align 8
  %41 = call noundef nonnull align 8 dereferenceable(40) ptr @_ZN4Json5ValueaSEOS0_(ptr noundef nonnull align 8 dereferenceable(40) %40, ptr noundef nonnull align 8 dereferenceable(40) %8) #13
  call void @_ZN4Json5ValueD1Ev(ptr noundef nonnull align 8 dereferenceable(40) %8) #13
  br label %86

42:                                               ; preds = %32
  %43 = load ptr, ptr %5, align 8
  %44 = call noundef zeroext i1 @_ZNK3dap3any2isINSt7__cxx1112basic_stringIcSt11char_traitsIcESaIcEEEEEbv(ptr noundef nonnull align 8 dereferenceable(56) %43)
  br i1 %44, label %45, label %51

45:                                               ; preds = %42
  %46 = load ptr, ptr %5, align 8
  %47 = call noundef nonnull align 8 dereferenceable(32) ptr @_ZNK3dap3any3getINSt7__cxx1112basic_stringIcSt11char_traitsIcESaIcEEEEERT_v(ptr noundef nonnull align 8 dereferenceable(56) %46)
  call void @_ZN4Json5ValueC1ERKNSt7__cxx1112basic_stringIcSt11char_traitsIcESaIcEEE(ptr noundef nonnull align 8 dereferenceable(40) %9, ptr noundef nonnull align 8 dereferenceable(32) %47)
  %48 = getelementptr inbounds %"struct.dap::json::JsonCppSerializer", ptr %12, i32 0, i32 1
  %49 = load ptr, ptr %48, align 8
  %50 = call noundef nonnull align 8 dereferenceable(40) ptr @_ZN4Json5ValueaSEOS0_(ptr noundef nonnull align 8 dereferenceable(40) %49, ptr noundef nonnull align 8 dereferenceable(40) %9) #13
  call void @_ZN4Json5ValueD1Ev(ptr noundef nonnull align 8 dereferenceable(40) %9) #13
  br label %85

51:                                               ; preds = %42
  %52 = load ptr, ptr %5, align 8
  %53 = call noundef zeroext i1 @_ZNK3dap3any2isISt13unordered_mapINSt7__cxx1112basic_stringIcSt11char_traitsIcESaIcEEES0_St4hashIS8_ESt8equal_toIS8_ESaISt4pairIKS8_S0_EEEEEbv(ptr noundef nonnull align 8 dereferenceable(56) %52)
  br i1 %53, label %54, label %61

54:                                               ; preds = %51
  %55 = load ptr, ptr %5, align 8
  %56 = call noundef nonnull align 8 dereferenceable(56) ptr @_ZNK3dap3any3getISt13unordered_mapINSt7__cxx1112basic_stringIcSt11char_traitsIcESaIcEEES0_St4hashIS8_ESt8equal_toIS8_ESaISt4pairIKS8_S0_EEEEERT_v(ptr noundef nonnull align 8 dereferenceable(56) %55)
  %57 = load ptr, ptr %12, align 8
  %58 = getelementptr inbounds ptr, ptr %57, i64 6
  %59 = load ptr, ptr %58, align 8
  %60 = call noundef zeroext i1 %59(ptr noundef nonnull align 8 dereferenceable(18) %12, ptr noundef nonnull align 8 dereferenceable(56) %56)
  store i1 %60, ptr %3, align 1
  br label %89

61:                                               ; preds = %51
  %62 = load ptr, ptr %5, align 8
  %63 = call noundef zeroext i1 @_ZNK3dap3any2isIDnEEbv(ptr noundef nonnull align 8 dereferenceable(56) %62)
  br i1 %63, label %64, label %65

64:                                               ; preds = %61
  br label %83

65:                                               ; preds = %61
  %66 = load ptr, ptr %5, align 8
  %67 = call noundef ptr @_ZN3dap10Serializer12get_any_typeERKNS_3anyE(ptr noundef nonnull align 8 dereferenceable(56) %66)
  store ptr %67, ptr %10, align 8
  %68 = load ptr, ptr %5, align 8
  %69 = call noundef ptr @_ZN3dap10Serializer11get_any_valERKNS_3anyE(ptr noundef nonnull align 8 dereferenceable(56) %68)
  store ptr %69, ptr %11, align 8
  %70 = load ptr, ptr %10, align 8
  %71 = icmp ne ptr %70, null
  br i1 %71, label %72, label %82

72:                                               ; preds = %65
  %73 = load ptr, ptr %11, align 8
  %74 = icmp ne ptr %73, null
  br i1 %74, label %75, label %82

75:                                               ; preds = %72
  %76 = load ptr, ptr %10, align 8
  %77 = load ptr, ptr %11, align 8
  %78 = load ptr, ptr %76, align 8
  %79 = getelementptr inbounds ptr, ptr %78, i64 9
  %80 = load ptr, ptr %79, align 8
  %81 = call noundef zeroext i1 %80(ptr noundef nonnull align 8 dereferenceable(8) %76, ptr noundef %12, ptr noundef %77)
  store i1 %81, ptr %3, align 1
  br label %89

82:                                               ; preds = %72, %65
  store i1 false, ptr %3, align 1
  br label %89

83:                                               ; preds = %64
  br label %84

84:                                               ; preds = %83
  br label %85

85:                                               ; preds = %84, %45
  br label %86

86:                                               ; preds = %85, %35
  br label %87

87:                                               ; preds = %86, %25
  br label %88

88:                                               ; preds = %87, %15
  store i1 true, ptr %3, align 1
  br label %89

89:                                               ; preds = %88, %82, %75, %54
  %90 = load i1, ptr %3, align 1
  ret i1 %90
}