; Function Attrs: mustprogress uwtable
define dso_local noundef zeroext i1 @_ZN3dap4json17JsonCppSerializer9serializeERKNS_3anyE(ptr noundef nonnull align 8 dereferenceable(18) %0, ptr nocapture noundef nonnull readonly align 8 dereferenceable(56) %1) unnamed_addr #0 align 2 {
  %3 = alloca %"class.Json::Value", align 8
  %4 = alloca %"class.Json::Value", align 8
  %5 = alloca %"class.Json::Value", align 8
  %6 = alloca %"class.Json::Value", align 8
  %7 = getelementptr inbounds i8, ptr %1, i64 8
  %8 = load ptr, ptr %7, align 8
  %9 = tail call noundef ptr @_ZN3dap6TypeOfINS_7booleanEE4typeEv()
  %10 = icmp eq ptr %8, %9
  br i1 %10, label %11, label %19

11:                                               ; preds = %2
  %12 = load ptr, ptr %1, align 8
  %13 = load i8, ptr %12, align 1
  %14 = and i8 %13, 1
  %15 = icmp ne i8 %14, 0
  call void @_ZN4Json5ValueC1Eb(ptr noundef nonnull align 8 dereferenceable(40) %3, i1 noundef zeroext %15)
  %16 = getelementptr inbounds i8, ptr %0, i64 8
  %17 = load ptr, ptr %16, align 8
  %18 = call noundef nonnull align 8 dereferenceable(40) ptr @_ZN4Json5ValueaSEOS0_(ptr noundef nonnull align 8 dereferenceable(40) %17, ptr noundef nonnull align 8 dereferenceable(40) %3) #21
  call void @_ZN4Json5ValueD1Ev(ptr noundef nonnull align 8 dereferenceable(40) %3) #21
  br label %67

19:                                               ; preds = %2
  %20 = load ptr, ptr %7, align 8
  %21 = tail call noundef ptr @_ZN3dap6TypeOfINS_7integerEE4typeEv()
  %22 = icmp eq ptr %20, %21
  br i1 %22, label %23, label %29

23:                                               ; preds = %19
  %24 = load ptr, ptr %1, align 8
  %25 = load i64, ptr %24, align 8
  call void @_ZN4Json5ValueC1El(ptr noundef nonnull align 8 dereferenceable(40) %4, i64 noundef %25)
  %26 = getelementptr inbounds i8, ptr %0, i64 8
  %27 = load ptr, ptr %26, align 8
  %28 = call noundef nonnull align 8 dereferenceable(40) ptr @_ZN4Json5ValueaSEOS0_(ptr noundef nonnull align 8 dereferenceable(40) %27, ptr noundef nonnull align 8 dereferenceable(40) %4) #21
  call void @_ZN4Json5ValueD1Ev(ptr noundef nonnull align 8 dereferenceable(40) %4) #21
  br label %67

29:                                               ; preds = %19
  %30 = load ptr, ptr %7, align 8
  %31 = tail call noundef ptr @_ZN3dap6TypeOfINS_6numberEE4typeEv()
  %32 = icmp eq ptr %30, %31
  br i1 %32, label %33, label %39

33:                                               ; preds = %29
  %34 = load ptr, ptr %1, align 8
  %35 = load double, ptr %34, align 8
  call void @_ZN4Json5ValueC1Ed(ptr noundef nonnull align 8 dereferenceable(40) %5, double noundef %35)
  %36 = getelementptr inbounds i8, ptr %0, i64 8
  %37 = load ptr, ptr %36, align 8
  %38 = call noundef nonnull align 8 dereferenceable(40) ptr @_ZN4Json5ValueaSEOS0_(ptr noundef nonnull align 8 dereferenceable(40) %37, ptr noundef nonnull align 8 dereferenceable(40) %5) #21
  call void @_ZN4Json5ValueD1Ev(ptr noundef nonnull align 8 dereferenceable(40) %5) #21
  br label %67

39:                                               ; preds = %29
  %40 = load ptr, ptr %7, align 8
  %41 = tail call noundef ptr @_ZN3dap6TypeOfINSt7__cxx1112basic_stringIcSt11char_traitsIcESaIcEEEE4typeEv()
  %42 = icmp eq ptr %40, %41
  br i1 %42, label %43, label %48

43:                                               ; preds = %39
  %44 = load ptr, ptr %1, align 8
  call void @_ZN4Json5ValueC1ERKNSt7__cxx1112basic_stringIcSt11char_traitsIcESaIcEEE(ptr noundef nonnull align 8 dereferenceable(40) %6, ptr noundef nonnull align 8 dereferenceable(32) %44)
  %45 = getelementptr inbounds i8, ptr %0, i64 8
  %46 = load ptr, ptr %45, align 8
  %47 = call noundef nonnull align 8 dereferenceable(40) ptr @_ZN4Json5ValueaSEOS0_(ptr noundef nonnull align 8 dereferenceable(40) %46, ptr noundef nonnull align 8 dereferenceable(40) %6) #21
  call void @_ZN4Json5ValueD1Ev(ptr noundef nonnull align 8 dereferenceable(40) %6) #21
  br label %67

48:                                               ; preds = %39
  %49 = load ptr, ptr %7, align 8
  %50 = tail call noundef ptr @_ZN3dap6TypeOfISt13unordered_mapINSt7__cxx1112basic_stringIcSt11char_traitsIcESaIcEEENS_3anyESt4hashIS7_ESt8equal_toIS7_ESaISt4pairIKS7_S8_EEEE4typeEv()
  %51 = icmp eq ptr %49, %50
  %52 = load ptr, ptr %1, align 8
  br i1 %51, label %53, label %58

53:                                               ; preds = %48
  %54 = load ptr, ptr %0, align 8
  %55 = getelementptr inbounds i8, ptr %54, i64 48
  %56 = load ptr, ptr %55, align 8
  %57 = tail call noundef zeroext i1 %56(ptr noundef nonnull align 8 dereferenceable(18) %0, ptr noundef nonnull align 8 dereferenceable(56) %52)
  br label %67

58:                                               ; preds = %48
  %59 = icmp eq ptr %52, null
  br i1 %59, label %67, label %60

60:                                               ; preds = %58
  %61 = load ptr, ptr %7, align 8
  %.not = icmp eq ptr %61, null
  br i1 %.not, label %67, label %62

62:                                               ; preds = %60
  %63 = load ptr, ptr %61, align 8
  %64 = getelementptr inbounds i8, ptr %63, i64 72
  %65 = load ptr, ptr %64, align 8
  %66 = tail call noundef zeroext i1 %65(ptr noundef nonnull align 8 dereferenceable(8) %61, ptr noundef nonnull %0, ptr noundef nonnull %52)
  br label %67

67:                                               ; preds = %11, %33, %58, %43, %23, %60, %62, %53
  %.0 = phi i1 [ %57, %53 ], [ %66, %62 ], [ false, %60 ], [ true, %23 ], [ true, %43 ], [ true, %58 ], [ true, %33 ], [ true, %11 ]
  ret i1 %.0
}